; Function Attrs: mustprogress uwtable
define dso_local void @_ZN4i18n12phonenumbers26PhoneNumberOfflineGeocoder4InitEPKiiPFPKNS0_16CountryLanguagesEiEPPKciPFPKNS0_18PrefixDescriptionsEiE(ptr nocapture noundef nonnull align 8 dereferenceable(104) %0, ptr noundef %1, i32 noundef %2, ptr noundef %3, ptr noundef %4, i32 noundef %5, ptr noundef %6) local_unnamed_addr #3 align 2 personality ptr @__gxx_personality_v0 {
  %8 = tail call noundef ptr @_ZN4i18n12phonenumbers15PhoneNumberUtil11GetInstanceEv()
  %9 = getelementptr inbounds i8, ptr %0, i64 8
  store ptr %8, ptr %9, align 8
  %10 = tail call noalias noundef nonnull dereferenceable(24) ptr @_Znwm(i64 noundef 24) #12
  invoke void @_ZN4i18n12phonenumbers19MappingFileProviderC1EPKiiPFPKNS0_16CountryLanguagesEiE(ptr noundef nonnull align 8 dereferenceable(24) %10, ptr noundef %1, i32 noundef %2, ptr noundef %3)
          to label %11 unwind label %19

11:                                               ; preds = %7
  %12 = getelementptr inbounds i8, ptr %0, i64 16
  %13 = load ptr, ptr %12, align 8
  store ptr %10, ptr %12, align 8
  %14 = icmp eq ptr %13, null
  br i1 %14, label %_ZN5boost10scoped_ptrIKN4i18n12phonenumbers19MappingFileProviderEE5resetEPS4_.exit, label %15

15:                                               ; preds = %11
  tail call void @_ZdlPv(ptr noundef nonnull %13) #13
  br label %_ZN5boost10scoped_ptrIKN4i18n12phonenumbers19MappingFileProviderEE5resetEPS4_.exit

_ZN5boost10scoped_ptrIKN4i18n12phonenumbers19MappingFileProviderEE5resetEPS4_.exit: ; preds = %11, %15
  %16 = getelementptr inbounds i8, ptr %0, i64 24
  store ptr %4, ptr %16, align 8
  %17 = getelementptr inbounds i8, ptr %0, i64 32
  store i32 %5, ptr %17, align 8
  %18 = getelementptr inbounds i8, ptr %0, i64 40
  store ptr %6, ptr %18, align 8
  ret void

19:                                               ; preds = %7
  %20 = landingpad { ptr, i32 }
          cleanup
  tail call void @_ZdlPv(ptr noundef nonnull %10) #13
  resume { ptr, i32 } %20
}